(dp0
S'total_uv'
p1
I721566
sS'by_browser_type'
p2
(dp3
S'Ipad'
p4
I402586
sS'Android'
p5
I441252
sS'Iphone'
p6
I39055
sS'PC_device'
p7
I4414117
ssS'by_url'
p8
(lp9
(S'cache_object://192.168.2.121/info'
p10
I48846
tp11
a(S'http://car0.autoimg.cn/carnews/2014/4/25/d_201404251621492883710.jpg'
p12
I32196
tp13
a(S'http://car0.autoimg.cn/carnews/2014/4/25/d_2014042509110584061.jpg'
p14
I26591
tp15
a(S'http://car0.autoimg.cn/carnews/2014/4/25/d_2014042509105846161.jpg'
p16
I26017
tp17
a(S'http://car0.autoimg.cn/logo/brand/50/130404487010246939.jpg'
p18
I19796
tp19
a(S'http://car0.autoimg.cn/logo/brand/50/129435969585897015.jpg'
p20
I19788
tp21
a(S'http://car0.autoimg.cn/logo/brand/50/130402040113980360.jpg'
p22
I19671
tp23
a(S'http://car0.autoimg.cn/logo/brand/50/129302250751932500.jpg'
p24
I19661
tp25
a(S'http://car0.autoimg.cn/logo/brand/50/130371852790179714.jpg'
p26
I19635
tp27
a(S'http://car0.autoimg.cn/logo/brand/50/130422928971186160.jpg'
p28
I19561
tp29
a(S'http://car0.autoimg.cn/logo/brand/50/130010430521260368.jpg'
p30
I19543
tp31
a(S'http://car0.autoimg.cn/upload/2014/4/1/t_20140401090750774270.jpg'
p32
I15904
tp33
a(S'http://car0.autoimg.cn/upload/2013/3/11/s_201303111704243594122.jpg'
p34
I15217
tp35
a(S'http://car0.autoimg.cn/upload/spec/9661/s_20120405141855274272.jpg'
p36
I14772
tp37
a(S'http://car0.autoimg.cn/upload/2013/11/8/s_201311081815204334862.jpg'
p38
I13318
tp39
a(S'http://car0.autoimg.cn/upload/2014/4/10/s_20140410111932018264.jpg'
p40
I12218
tp41
a(S'http://car0.autoimg.cn/carnews/2014/4/25/d_201404251128170604322.jpg'
p42
I12192
tp43
a(S'http://car0.autoimg.cn/carnews/2014/4/25/d_201404251134203004322.jpg'
p44
I11683
tp45
a(S'http://car0.autoimg.cn/upload/2014/4/21/s_20140421002730822-1.jpg'
p46
I10678
tp47
a(S'http://car0.autoimg.cn/upload/2014/4/21/s_20140421002631152-1.jpg'
p48
I10658
tp49
asS'by_response_code'
p50
(dp51
S'200'
p52
I5179262
sS'206'
p53
I98876
sS'304'
p54
I18601
sS'404'
p55
I53
sS'406'
p56
I1
sS'000'
p57
I141
sS'403'
p58
I76
ssS'by_region_pv'
p59
(dp60
V\u5c71\u4e1c\u7701\u4e1c\u8425\u5e02
p61
I208826
sV\u5c71\u4e1c\u7701\u70df\u53f0\u5e02
p62
I370426
sV\u5c71\u4e1c\u7701\u804a\u57ce\u5e02
p63
I129456
sV\u5c71\u4e1c\u7701\u6ee8\u5dde\u5e02
p64
I92934
sV\u5c71\u4e1c\u7701\u67a3\u5e84\u5e02
p65
I100875
sV\u5c71\u4e1c\u7701\u5a01\u6d77\u5e02
p66
I160357
sV\u5c71\u4e1c\u7701\u9752\u5c9b\u5e02
p67
I417210
sV\u5c71\u4e1c\u7701\u83cf\u6cfd\u5e02
p68
I34735
sV\u5c71\u4e1c\u7701\u5fb7\u5dde\u5e02
p69
I182397
sV\u5c71\u4e1c\u7701\u4e34\u6c82\u5e02
p70
I322786
sV\u6e56\u5317\u7701\u6b66\u6c49\u5e02
p71
I27027
sV\u5929\u6d25\u5e02\u5929\u6d25\u5e02
p72
I32687
sV\u5c71\u4e1c\u7701\u6f4d\u574a\u5e02
p73
I438822
sV\u5c71\u4e1c\u7701\u6d4e\u5b81\u5e02
p74
I176568
sV\u5c71\u4e1c\u7701\u65e5\u7167\u5e02
p75
I77705
sV\u5c71\u4e1c\u7701\u6cf0\u5b89\u5e02
p76
I100235
sV\u5c71\u4e1c\u7701\u6dc4\u535a\u5e02
p77
I107519
sV\u5c71\u4e1c\u7701\u6d4e\u5357\u5e02
p78
I892654
ssS'by_hour'
p79
(lp80
(dp81
S'total_size'
p82
I0
sS'hour_end_time'
p83
(lp84
F1398527822.262
asS'vistors'
p85
I0
sa(dp86
g82
I4865244956
sg83
(lp87
F1398531422.263
asg85
I25230
sa(dp88
g82
I2220997357
sg83
(lp89
F1398535022.45
asg85
I11630
sa(dp90
g82
I1099808226
sg83
(lp91
F1398538622.455
asg85
I5777
sa(dp92
g82
I619133602
sg83
(lp93
F1398542222.654
asg85
I3338
sa(dp94
g82
I494615729
sg83
(lp95
F1398545822.899
asg85
I2641
sa(dp96
g82
I637005090
sg83
(lp97
F1398549422.935
asg85
I4350
sa(dp98
g82
I1863686260
sg83
(lp99
F1398553023.133
asg85
I12792
sa(dp100
g82
I3613160215
sg83
(lp101
F1398556623.209
asg85
I24643
sa(dp102
g82
I6637284213
sg83
(lp103
F1398560223.209
asg85
I39013
sa(dp104
g82
I9309268664
sg83
(lp105
F1398563823.224
asg85
I49792
sa(dp106
g82
I10433429935
sg83
(lp107
F1398567423.29
asg85
I54718
sa(dp108
g82
I10347406574
sg83
(lp109
F1398571023.314
asg85
I55300
sa(dp110
g82
I9224674919
sg83
(lp111
F1398574623.33
asg85
I49452
sa(dp112
g82
I9650768206
sg83
(lp113
F1398578223.381
asg85
I49873
sa(dp114
g82
I10225556696
sg83
(lp115
F1398581823.399
asg85
I51060
sa(dp116
g82
I11798545918
sg83
(lp117
F1398585423.412
asg85
I57165
sa(dp118
g82
I13403914345
sg83
(lp119
F1398589023.414
asg85
I63962
sa(dp120
g82
I13501495552
sg83
(lp121
F1398592623.414
asg85
I65274
sa(dp122
g82
I13413526623
sg83
(lp123
F1398596223.423
asg85
I64979
sa(dp124
g82
I14993763546
sg83
(lp125
F1398599823.432
asg85
I72369
sa(dp126
g82
I17342691955
sg83
(lp127
F1398603423.439
asg85
I86708
sa(dp128
g82
I17200510212
sg83
(lp129
F1398607023.458
asg85
I88116
sa(dp130
g82
I13814605330
sg83
(lp131
F1398610623.46
asg85
I68438
sa(dp132
g82
I7864010060
sg83
(lp133
F1398614223.487
asg85
I39469
sasS'total_pv'
p134
I5297010
sS'by_region'
p135
(dp136
V\u5c71\u4e1c\u7701\u4e1c\u8425\u5e02
p137
I37012
sV\u5c71\u4e1c\u7701\u70df\u53f0\u5e02
p138
I41154
sV\u5c71\u4e1c\u7701\u65e5\u7167\u5e02
p139
I5719
sV\u5c71\u4e1c\u7701\u6dc4\u535a\u5e02
p140
I16469
sV\u5c71\u4e1c\u7701\u67a3\u5e84\u5e02
p141
I5117
sV\u5c71\u4e1c\u7701\u5a01\u6d77\u5e02
p142
I19820
sV\u5c71\u4e1c\u7701\u83b1\u829c\u5e02
p143
I16028
sV\u5c71\u4e1c\u7701\u9752\u5c9b\u5e02
p144
I67655
sV\u5c71\u4e1c\u7701\u83cf\u6cfd\u5e02
p145
I14011
sV\u5c71\u4e1c\u7701\u804a\u57ce\u5e02
p146
I24883
sV\u5c71\u4e1c\u7701\u4e34\u6c82\u5e02
p147
I62071
sV\u5c71\u4e1c\u7701\u6f4d\u574a\u5e02
p148
I40766
sV\u5c71\u4e1c\u7701\u6d4e\u5b81\u5e02
p149
I37072
sV\u5c71\u4e1c\u7701\u6cf0\u5b89\u5e02
p150
I14140
sV\u5c71\u4e1c\u7701\u5fb7\u5dde\u5e02
p151
I9466
sV\u5c71\u4e1c\u7701\u6ee8\u5dde\u5e02
p152
I23041
sV\u5c71\u4e1c\u7701\u6d4e\u5357\u5e02
p153
I101686
ssS'by_cache_type'
p154
(dp155
S'TCP_IMS_HIT'
p156
I18599
sS'TCP_DENIED'
p157
I75
sS'TCP_HIT'
p158
I48424
sS'TCP_MEM_HIT'
p159
I5162483
sS'TCP_REFRESH_HIT'
p160
I783
sS'TCP_NEGATIVE_HIT'
p161
I5
sS'TCP_MISS'
p162
I66622
sS'TCP_REFRESH_MISS'
p163
I19
ssS'by_content_type'
p164
(dp165
S'image/gif'
p166
I6213
sS'text/html'
p167
I129
sS'-'
p168
I142
sS'text/plain'
p169
I54591
sS'image/jpeg'
p170
I5235935
ss.